; Function Attrs: mustprogress nofree norecurse nosync nounwind willreturn memory(read, argmem: none, inaccessiblemem: none) uwtable
define hidden i64 @_ZN4cvc58internal4prop16MinisatSatSolver12toSatLiteralENS0_7Minisat3LitE(i32 %lit.coerce) local_unnamed_addr #11 align 2 {
entry:
  %cmp.i = icmp eq i32 %lit.coerce, -2
  br i1 %cmp.i, label %if.then, label %if.end

if.then:                                          ; preds = %entry
  %.b = load i1, ptr @_ZN4cvc58internal4propL15undefSatLiteralE.0, align 8
  %0 = select i1 %.b, i64 -2, i64 0
  br label %return

if.end:                                           ; preds = %entry
  %shr.i = ashr i32 %lit.coerce, 1
  %conv = sext i32 %shr.i to i64
  %and.i = and i32 %lit.coerce, 1
  %add.i = shl nsw i64 %conv, 1
  %conv2.i = zext nneg i32 %and.i to i64
  %add3.i = or disjoint i64 %add.i, %conv2.i
  br label %return

return:                                           ; preds = %if.end, %if.then
  %retval.sroa.0.0 = phi i64 [ %0, %if.then ], [ %add3.i, %if.end ]
  ret i64 %retval.sroa.0.0
}